target datalayout = "e-m:e-p270:32:32-p271:32:32-p272:64:64-i64:64-i128:128-f80:128-n8:16:32:64-S128"
target triple = "x86_64-pc-linux-gnu"

%"class.pxrInternal_v0_24__pxrReserved__::SdfPredicateLibrary" = type { %"class.pxrInternal_v0_24__pxrReserved__::pxr_tsl::robin_map" }
%"class.pxrInternal_v0_24__pxrReserved__::pxr_tsl::robin_map" = type { %"class.pxrInternal_v0_24__pxrReserved__::pxr_tsl::detail_robin_hash::robin_hash" }
%"class.pxrInternal_v0_24__pxrReserved__::pxr_tsl::detail_robin_hash::robin_hash" = type <{ %"class.pxrInternal_v0_24__pxrReserved__::pxr_tsl::rh::power_of_two_growth_policy", %"class.std::vector.49", ptr, i64, i64, i64, float, float, i8, i8, [6 x i8] }>
%"class.pxrInternal_v0_24__pxrReserved__::pxr_tsl::rh::power_of_two_growth_policy" = type { i64 }
%"class.std::vector.49" = type { %"struct.std::_Vector_base.50" }
%"struct.std::_Vector_base.50" = type { %"struct.std::_Vector_base<pxrInternal_v0_24__pxrReserved__::pxr_tsl::detail_robin_hash::bucket_entry<std::pair<std::__cxx11::basic_string<char>, std::vector<std::unique_ptr<pxrInternal_v0_24__pxrReserved__::SdfPredicateLibrary<const pxrInternal_v0_24__pxrReserved__::SdfPath &>::_OverloadBinderBase>>>, true>, std::allocator<pxrInternal_v0_24__pxrReserved__::pxr_tsl::detail_robin_hash::bucket_entry<std::pair<std::__cxx11::basic_string<char>, std::vector<std::unique_ptr<pxrInternal_v0_24__pxrReserved__::SdfPredicateLibrary<const pxrInternal_v0_24__pxrReserved__::SdfPath &>::_OverloadBinderBase>>>, true>>>::_Vector_impl" }
%"struct.std::_Vector_base<pxrInternal_v0_24__pxrReserved__::pxr_tsl::detail_robin_hash::bucket_entry<std::pair<std::__cxx11::basic_string<char>, std::vector<std::unique_ptr<pxrInternal_v0_24__pxrReserved__::SdfPredicateLibrary<const pxrInternal_v0_24__pxrReserved__::SdfPath &>::_OverloadBinderBase>>>, true>, std::allocator<pxrInternal_v0_24__pxrReserved__::pxr_tsl::detail_robin_hash::bucket_entry<std::pair<std::__cxx11::basic_string<char>, std::vector<std::unique_ptr<pxrInternal_v0_24__pxrReserved__::SdfPredicateLibrary<const pxrInternal_v0_24__pxrReserved__::SdfPath &>::_OverloadBinderBase>>>, true>>>::_Vector_impl" = type { %"struct.std::_Vector_base<pxrInternal_v0_24__pxrReserved__::pxr_tsl::detail_robin_hash::bucket_entry<std::pair<std::__cxx11::basic_string<char>, std::vector<std::unique_ptr<pxrInternal_v0_24__pxrReserved__::SdfPredicateLibrary<const pxrInternal_v0_24__pxrReserved__::SdfPath &>::_OverloadBinderBase>>>, true>, std::allocator<pxrInternal_v0_24__pxrReserved__::pxr_tsl::detail_robin_hash::bucket_entry<std::pair<std::__cxx11::basic_string<char>, std::vector<std::unique_ptr<pxrInternal_v0_24__pxrReserved__::SdfPredicateLibrary<const pxrInternal_v0_24__pxrReserved__::SdfPath &>::_OverloadBinderBase>>>, true>>>::_Vector_impl_data" }
%"struct.std::_Vector_base<pxrInternal_v0_24__pxrReserved__::pxr_tsl::detail_robin_hash::bucket_entry<std::pair<std::__cxx11::basic_string<char>, std::vector<std::unique_ptr<pxrInternal_v0_24__pxrReserved__::SdfPredicateLibrary<const pxrInternal_v0_24__pxrReserved__::SdfPath &>::_OverloadBinderBase>>>, true>, std::allocator<pxrInternal_v0_24__pxrReserved__::pxr_tsl::detail_robin_hash::bucket_entry<std::pair<std::__cxx11::basic_string<char>, std::vector<std::unique_ptr<pxrInternal_v0_24__pxrReserved__::SdfPredicateLibrary<const pxrInternal_v0_24__pxrReserved__::SdfPath &>::_OverloadBinderBase>>>, true>>>::_Vector_impl_data" = type { ptr, ptr, ptr }
%"struct.(anonymous namespace)::MatchEval" = type { %"class.pxrInternal_v0_24__pxrReserved__::SdfPathExpressionEval" }
%"class.pxrInternal_v0_24__pxrReserved__::SdfPathExpressionEval" = type { %"class.pxrInternal_v0_24__pxrReserved__::Sdf_PathExpressionEvalBase", %"class.std::vector.18" }
%"class.pxrInternal_v0_24__pxrReserved__::Sdf_PathExpressionEvalBase" = type { %"class.std::vector.13" }
%"class.std::vector.13" = type { %"struct.std::_Vector_base.14" }
%"struct.std::_Vector_base.14" = type { %"struct.std::_Vector_base<pxrInternal_v0_24__pxrReserved__::Sdf_PathExpressionEvalBase::_Op, std::allocator<pxrInternal_v0_24__pxrReserved__::Sdf_PathExpressionEvalBase::_Op>>::_Vector_impl" }
%"struct.std::_Vector_base<pxrInternal_v0_24__pxrReserved__::Sdf_PathExpressionEvalBase::_Op, std::allocator<pxrInternal_v0_24__pxrReserved__::Sdf_PathExpressionEvalBase::_Op>>::_Vector_impl" = type { %"struct.std::_Vector_base<pxrInternal_v0_24__pxrReserved__::Sdf_PathExpressionEvalBase::_Op, std::allocator<pxrInternal_v0_24__pxrReserved__::Sdf_PathExpressionEvalBase::_Op>>::_Vector_impl_data" }
%"struct.std::_Vector_base<pxrInternal_v0_24__pxrReserved__::Sdf_PathExpressionEvalBase::_Op, std::allocator<pxrInternal_v0_24__pxrReserved__::Sdf_PathExpressionEvalBase::_Op>>::_Vector_impl_data" = type { ptr, ptr, ptr }
%"class.std::vector.18" = type { %"struct.std::_Vector_base.19" }
%"struct.std::_Vector_base.19" = type { %"struct.std::_Vector_base<pxrInternal_v0_24__pxrReserved__::SdfPathExpressionEval<const pxrInternal_v0_24__pxrReserved__::SdfPath &>::_PatternImpl, std::allocator<pxrInternal_v0_24__pxrReserved__::SdfPathExpressionEval<const pxrInternal_v0_24__pxrReserved__::SdfPath &>::_PatternImpl>>::_Vector_impl" }
%"struct.std::_Vector_base<pxrInternal_v0_24__pxrReserved__::SdfPathExpressionEval<const pxrInternal_v0_24__pxrReserved__::SdfPath &>::_PatternImpl, std::allocator<pxrInternal_v0_24__pxrReserved__::SdfPathExpressionEval<const pxrInternal_v0_24__pxrReserved__::SdfPath &>::_PatternImpl>>::_Vector_impl" = type { %"struct.std::_Vector_base<pxrInternal_v0_24__pxrReserved__::SdfPathExpressionEval<const pxrInternal_v0_24__pxrReserved__::SdfPath &>::_PatternImpl, std::allocator<pxrInternal_v0_24__pxrReserved__::SdfPathExpressionEval<const pxrInternal_v0_24__pxrReserved__::SdfPath &>::_PatternImpl>>::_Vector_impl_data" }
%"struct.std::_Vector_base<pxrInternal_v0_24__pxrReserved__::SdfPathExpressionEval<const pxrInternal_v0_24__pxrReserved__::SdfPath &>::_PatternImpl, std::allocator<pxrInternal_v0_24__pxrReserved__::SdfPathExpressionEval<const pxrInternal_v0_24__pxrReserved__::SdfPath &>::_PatternImpl>>::_Vector_impl_data" = type { ptr, ptr, ptr }
%class.anon.116 = type { i8 }
%class.anon.118 = type { i8 }

@_ZZN12_GLOBAL__N_120GetBasicPredicateLibEvE6theLib = internal global %"class.pxrInternal_v0_24__pxrReserved__::SdfPredicateLibrary" zeroinitializer, align 8
@_ZGVZN12_GLOBAL__N_120GetBasicPredicateLibEvE6theLib = internal global i64 0, align 8
@.str.227 = private unnamed_addr constant [11 x i8] c"isPrimPath\00", align 1
@.str.228 = private unnamed_addr constant [15 x i8] c"isPropertyPath\00", align 1
@__dso_handle = external hidden global i8

; Function Attrs: mustprogress nounwind uwtable
define linkonce_odr dso_local void @_ZN32pxrInternal_v0_24__pxrReserved__7pxr_tsl17detail_robin_hash10robin_hashISt4pairINSt7__cxx1112basic_stringIcSt11char_traitsIcESaIcEEESt6vectorISt10unique_ptrINS_19SdfPredicateLibraryIRKNS_7SdfPathEE19_OverloadBinderBaseESt14default_deleteISH_EESaISK_EEENS0_9robin_mapIS9_SM_St4hashIS9_ESt8equal_toIS9_ESaISN_ELb0ENS0_2rh26power_of_two_growth_policyILm2EEEE9KeySelectENSX_11ValueSelectESQ_SS_ST_Lb0ESW_ED2Ev(ptr noundef nonnull align 8 dereferenceable(74) %0) unnamed_addr #3 comdat align 2 {
  %2 = alloca ptr, align 8
  store ptr %0, ptr %2, align 8
  %3 = load ptr, ptr %2, align 8
  %4 = getelementptr inbounds nuw %"class.pxrInternal_v0_24__pxrReserved__::pxr_tsl::detail_robin_hash::robin_hash", ptr %3, i32 0, i32 1
  call void @_ZNSt6vectorIN32pxrInternal_v0_24__pxrReserved__7pxr_tsl17detail_robin_hash12bucket_entryISt4pairINSt7__cxx1112basic_stringIcSt11char_traitsIcESaIcEEES_ISt10unique_ptrINS0_19SdfPredicateLibraryIRKNS0_7SdfPathEE19_OverloadBinderBaseESt14default_deleteISH_EESaISK_EEELb1EEESaISO_EED2Ev(ptr noundef nonnull align 8 dereferenceable(24) %4) #11
  ret void
}

; Function Attrs: mustprogress nounwind uwtable
define linkonce_odr dso_local void @_ZN32pxrInternal_v0_24__pxrReserved__7pxr_tsl9robin_mapINSt7__cxx1112basic_stringIcSt11char_traitsIcESaIcEEESt6vectorISt10unique_ptrINS_19SdfPredicateLibraryIRKNS_7SdfPathEE19_OverloadBinderBaseESt14default_deleteISF_EESaISI_EESt4hashIS7_ESt8equal_toIS7_ESaISt4pairIS7_SK_EELb0ENS0_2rh26power_of_two_growth_policyILm2EEEED2Ev(ptr noundef nonnull align 8 dereferenceable(80) %0) unnamed_addr #3 comdat align 2 {
  %2 = alloca ptr, align 8
  store ptr %0, ptr %2, align 8
  %3 = load ptr, ptr %2, align 8
  %4 = getelementptr inbounds nuw %"class.pxrInternal_v0_24__pxrReserved__::pxr_tsl::robin_map", ptr %3, i32 0, i32 0
  call void @_ZN32pxrInternal_v0_24__pxrReserved__7pxr_tsl17detail_robin_hash10robin_hashISt4pairINSt7__cxx1112basic_stringIcSt11char_traitsIcESaIcEEESt6vectorISt10unique_ptrINS_19SdfPredicateLibraryIRKNS_7SdfPathEE19_OverloadBinderBaseESt14default_deleteISH_EESaISK_EEENS0_9robin_mapIS9_SM_St4hashIS9_ESt8equal_toIS9_ESaISN_ELb0ENS0_2rh26power_of_two_growth_policyILm2EEEE9KeySelectENSX_11ValueSelectESQ_SS_ST_Lb0ESW_ED2Ev(ptr noundef nonnull align 8 dereferenceable(74) %4) #11
  ret void
}

; Function Attrs: mustprogress nounwind uwtable
define linkonce_odr dso_local void @_ZN32pxrInternal_v0_24__pxrReserved__19SdfPredicateLibraryIRKNS_7SdfPathEED2Ev(ptr noundef nonnull align 8 dereferenceable(80) %0) unnamed_addr #3 comdat align 2 {
  %2 = alloca ptr, align 8
  store ptr %0, ptr %2, align 8
  %3 = load ptr, ptr %2, align 8
  %4 = getelementptr inbounds nuw %"class.pxrInternal_v0_24__pxrReserved__::SdfPredicateLibrary", ptr %3, i32 0, i32 0
  call void @_ZN32pxrInternal_v0_24__pxrReserved__7pxr_tsl9robin_mapINSt7__cxx1112basic_stringIcSt11char_traitsIcESaIcEEESt6vectorISt10unique_ptrINS_19SdfPredicateLibraryIRKNS_7SdfPathEE19_OverloadBinderBaseESt14default_deleteISF_EESaISI_EESt4hashIS7_ESt8equal_toIS7_ESaISt4pairIS7_SK_EELb0ENS0_2rh26power_of_two_growth_policyILm2EEEED2Ev(ptr noundef nonnull align 8 dereferenceable(80) %4) #11
  ret void
}

; Function Attrs: mustprogress uwtable
define internal noundef nonnull align 8 dereferenceable(80) ptr @_ZN12_GLOBAL__N_120GetBasicPredicateLibEv() #1 personality ptr @__gxx_personality_v0 {
  %1 = alloca %"class.pxrInternal_v0_24__pxrReserved__::SdfPredicateLibrary", align 8
  %2 = alloca ptr, align 8
  %3 = alloca i32, align 4
  %4 = alloca %class.anon.116, align 1
  %5 = alloca %class.anon.118, align 1
  %6 = load atomic i8, ptr @_ZGVZN12_GLOBAL__N_120GetBasicPredicateLibEvE6theLib acquire, align 8
  %7 = icmp eq i8 %6, 0
  br i1 %7, label %8, label %19, !prof !12

8:                                                ; preds = %0
  %9 = call i32 @__cxa_guard_acquire(ptr @_ZGVZN12_GLOBAL__N_120GetBasicPredicateLibEvE6theLib) #11
  %10 = icmp ne i32 %9, 0
  br i1 %10, label %11, label %19

11:                                               ; preds = %8
  call void @llvm.memset.p0.i64(ptr align 8 %1, i8 0, i64 80, i1 false)
  invoke void @_ZN32pxrInternal_v0_24__pxrReserved__19SdfPredicateLibraryIRKNS_7SdfPathEEC2Ev(ptr noundef nonnull align 8 dereferenceable(80) %1)
          to label %12 unwind label %20

12:                                               ; preds = %11
  %13 = invoke noundef nonnull align 8 dereferenceable(80) ptr @"_ZN32pxrInternal_v0_24__pxrReserved__19SdfPredicateLibraryIRKNS_7SdfPathEE6DefineIZN12_GLOBAL__N_120GetBasicPredicateLibEvE3$_0EERS4_PKcOT_"(ptr noundef nonnull align 8 dereferenceable(80) %1, ptr noundef @.str.227, ptr noundef nonnull align 1 dereferenceable(1) %4)
          to label %14 unwind label %24

14:                                               ; preds = %12
  %15 = invoke noundef nonnull align 8 dereferenceable(80) ptr @"_ZN32pxrInternal_v0_24__pxrReserved__19SdfPredicateLibraryIRKNS_7SdfPathEE6DefineIZN12_GLOBAL__N_120GetBasicPredicateLibEvE3$_1EERS4_PKcOT_"(ptr noundef nonnull align 8 dereferenceable(80) %13, ptr noundef @.str.228, ptr noundef nonnull align 1 dereferenceable(1) %5)
          to label %16 unwind label %24

16:                                               ; preds = %14
  invoke void @_ZN32pxrInternal_v0_24__pxrReserved__19SdfPredicateLibraryIRKNS_7SdfPathEEC2ERKS4_(ptr noundef nonnull align 8 dereferenceable(80) @_ZZN12_GLOBAL__N_120GetBasicPredicateLibEvE6theLib, ptr noundef nonnull align 8 dereferenceable(80) %15)
          to label %17 unwind label %24

17:                                               ; preds = %16
  call void @_ZN32pxrInternal_v0_24__pxrReserved__19SdfPredicateLibraryIRKNS_7SdfPathEED2Ev(ptr noundef nonnull align 8 dereferenceable(80) %1) #11
  %18 = call i32 @__cxa_atexit(ptr @_ZN32pxrInternal_v0_24__pxrReserved__19SdfPredicateLibraryIRKNS_7SdfPathEED2Ev, ptr @_ZZN12_GLOBAL__N_120GetBasicPredicateLibEvE6theLib, ptr @__dso_handle) #11
  call void @__cxa_guard_release(ptr @_ZGVZN12_GLOBAL__N_120GetBasicPredicateLibEvE6theLib) #11
  br label %19

19:                                               ; preds = %17, %8, %0
  ret ptr @_ZZN12_GLOBAL__N_120GetBasicPredicateLibEvE6theLib

20:                                               ; preds = %11
  %21 = landingpad { ptr, i32 }
          cleanup
  %22 = extractvalue { ptr, i32 } %21, 0
  store ptr %22, ptr %2, align 8
  %23 = extractvalue { ptr, i32 } %21, 1
  store i32 %23, ptr %3, align 4
  br label %28

24:                                               ; preds = %16, %14, %12
  %25 = landingpad { ptr, i32 }
          cleanup
  %26 = extractvalue { ptr, i32 } %25, 0
  store ptr %26, ptr %2, align 8
  %27 = extractvalue { ptr, i32 } %25, 1
  store i32 %27, ptr %3, align 4
  call void @_ZN32pxrInternal_v0_24__pxrReserved__19SdfPredicateLibraryIRKNS_7SdfPathEED2Ev(ptr noundef nonnull align 8 dereferenceable(80) %1) #11
  br label %28

28:                                               ; preds = %24, %20
  call void @__cxa_guard_abort(ptr @_ZGVZN12_GLOBAL__N_120GetBasicPredicateLibEvE6theLib) #11
  br label %29

29:                                               ; preds = %28
  %30 = load ptr, ptr %2, align 8
  %31 = load i32, ptr %3, align 4
  %32 = insertvalue { ptr, i32 } poison, ptr %30, 0
  %33 = insertvalue { ptr, i32 } %32, i32 %31, 1
  resume { ptr, i32 } %33
}

; Function Attrs: mustprogress uwtable
define internal void @_ZN12_GLOBAL__N_19MatchEvalC2ERKN32pxrInternal_v0_24__pxrReserved__17SdfPathExpressionE(ptr noundef nonnull align 8 dereferenceable(48) %0, ptr noundef nonnull align 8 dereferenceable(104) %1) unnamed_addr #1 align 2 {
  %3 = alloca ptr, align 8
  %4 = alloca ptr, align 8
  store ptr %0, ptr %3, align 8
  store ptr %1, ptr %4, align 8
  %5 = load ptr, ptr %3, align 8
  %6 = getelementptr inbounds nuw %"struct.(anonymous namespace)::MatchEval", ptr %5, i32 0, i32 0
  %7 = load ptr, ptr %4, align 8
  %8 = call noundef nonnull align 8 dereferenceable(80) ptr @_ZN12_GLOBAL__N_120GetBasicPredicateLibEv()
  call void @_ZN32pxrInternal_v0_24__pxrReserved__25SdfMakePathExpressionEvalIRKNS_7SdfPathEEENS_21SdfPathExpressionEvalIT_EERKNS_17SdfPathExpressionERKNS_19SdfPredicateLibraryIS5_EE(ptr dead_on_unwind writable sret(%"class.pxrInternal_v0_24__pxrReserved__::SdfPathExpressionEval") align 8 %6, ptr noundef nonnull align 8 dereferenceable(104) %7, ptr noundef nonnull align 8 dereferenceable(80) %8)
  ret void
}