; Function Attrs: mustprogress norecurse uwtable
define internal fastcc void @_ZN12_GLOBAL__N_19MatchEvalC2ERKN32pxrInternal_v0_24__pxrReserved__17SdfPathExpressionE(ptr noundef nonnull align 8 dereferenceable(48) %0, ptr noundef nonnull align 8 dereferenceable(104) %1) unnamed_addr #0 align 2 personality ptr @__gxx_personality_v0 {
  %3 = alloca %"class.pxrInternal_v0_24__pxrReserved__::SdfPredicateLibrary", align 8
  call void @llvm.lifetime.start.p0(i64 80, ptr nonnull %3)
  %4 = load atomic i8, ptr @_ZGVZN12_GLOBAL__N_120GetBasicPredicateLibEvE6theLib acquire, align 8
  %5 = icmp eq i8 %4, 0
  br i1 %5, label %6, label %_ZN12_GLOBAL__N_120GetBasicPredicateLibEv.exit, !prof !19

6:                                                ; preds = %2
  %7 = tail call i32 @__cxa_guard_acquire(ptr nonnull @_ZGVZN12_GLOBAL__N_120GetBasicPredicateLibEvE6theLib) #24
  %.not.i = icmp eq i32 %7, 0
  br i1 %.not.i, label %_ZN12_GLOBAL__N_120GetBasicPredicateLibEv.exit, label %8

8:                                                ; preds = %6
  call void @llvm.memset.p0.i64(ptr noundef nonnull align 8 dereferenceable(80) %3, i8 0, i64 80, i1 false)
  invoke void @_ZN32pxrInternal_v0_24__pxrReserved__19SdfPredicateLibraryIRKNS_7SdfPathEEC2Ev(ptr noundef nonnull align 8 dereferenceable(80) %3)
          to label %9 unwind label %17

9:                                                ; preds = %8
  %10 = invoke fastcc noundef nonnull align 8 dereferenceable(80) ptr @"_ZN32pxrInternal_v0_24__pxrReserved__19SdfPredicateLibraryIRKNS_7SdfPathEE6DefineIZN12_GLOBAL__N_120GetBasicPredicateLibEvE3$_0EERS4_PKcOT_"(ptr noundef nonnull align 8 dereferenceable(80) %3)
          to label %11 unwind label %19

11:                                               ; preds = %9
  %12 = invoke fastcc noundef nonnull align 8 dereferenceable(80) ptr @"_ZN32pxrInternal_v0_24__pxrReserved__19SdfPredicateLibraryIRKNS_7SdfPathEE6DefineIZN12_GLOBAL__N_120GetBasicPredicateLibEvE3$_1EERS4_PKcOT_"(ptr noundef nonnull align 8 dereferenceable(80) %3)
          to label %13 unwind label %19

13:                                               ; preds = %11
  invoke void @_ZN32pxrInternal_v0_24__pxrReserved__19SdfPredicateLibraryIRKNS_7SdfPathEEC2ERKS4_(ptr noundef nonnull align 8 dereferenceable(80) @_ZZN12_GLOBAL__N_120GetBasicPredicateLibEvE6theLib, ptr noundef nonnull align 8 dereferenceable(80) %3)
          to label %14 unwind label %19

14:                                               ; preds = %13
  %15 = getelementptr inbounds nuw i8, ptr %3, i64 8
  call void @_ZNSt6vectorIN32pxrInternal_v0_24__pxrReserved__7pxr_tsl17detail_robin_hash12bucket_entryISt4pairINSt7__cxx1112basic_stringIcSt11char_traitsIcESaIcEEES_ISt10unique_ptrINS0_19SdfPredicateLibraryIRKNS0_7SdfPathEE19_OverloadBinderBaseESt14default_deleteISH_EESaISK_EEELb1EEESaISO_EED2Ev(ptr noundef nonnull align 8 dereferenceable(24) %15) #24
  %16 = call i32 @__cxa_atexit(ptr nonnull @_ZN32pxrInternal_v0_24__pxrReserved__19SdfPredicateLibraryIRKNS_7SdfPathEED2Ev, ptr nonnull @_ZZN12_GLOBAL__N_120GetBasicPredicateLibEvE6theLib, ptr nonnull @__dso_handle) #24
  call void @__cxa_guard_release(ptr nonnull @_ZGVZN12_GLOBAL__N_120GetBasicPredicateLibEvE6theLib) #24
  br label %_ZN12_GLOBAL__N_120GetBasicPredicateLibEv.exit

17:                                               ; preds = %8
  %18 = landingpad { ptr, i32 }
          cleanup
  br label %22

19:                                               ; preds = %13, %11, %9
  %20 = landingpad { ptr, i32 }
          cleanup
  %21 = getelementptr inbounds nuw i8, ptr %3, i64 8
  call void @_ZNSt6vectorIN32pxrInternal_v0_24__pxrReserved__7pxr_tsl17detail_robin_hash12bucket_entryISt4pairINSt7__cxx1112basic_stringIcSt11char_traitsIcESaIcEEES_ISt10unique_ptrINS0_19SdfPredicateLibraryIRKNS0_7SdfPathEE19_OverloadBinderBaseESt14default_deleteISH_EESaISK_EEELb1EEESaISO_EED2Ev(ptr noundef nonnull align 8 dereferenceable(24) %21) #24
  br label %22

22:                                               ; preds = %19, %17
  %.pn.i = phi { ptr, i32 } [ %20, %19 ], [ %18, %17 ]
  call void @__cxa_guard_abort(ptr nonnull @_ZGVZN12_GLOBAL__N_120GetBasicPredicateLibEvE6theLib) #24
  resume { ptr, i32 } %.pn.i

_ZN12_GLOBAL__N_120GetBasicPredicateLibEv.exit:   ; preds = %2, %6, %14
  call void @llvm.lifetime.end.p0(i64 80, ptr nonnull %3)
  call void @_ZN32pxrInternal_v0_24__pxrReserved__25SdfMakePathExpressionEvalIRKNS_7SdfPathEEENS_21SdfPathExpressionEvalIT_EERKNS_17SdfPathExpressionERKNS_19SdfPredicateLibraryIS5_EE(ptr dead_on_unwind nonnull writable sret(%"class.pxrInternal_v0_24__pxrReserved__::SdfPathExpressionEval") align 8 %0, ptr noundef nonnull align 8 dereferenceable(104) %1, ptr noundef nonnull align 8 dereferenceable(80) @_ZZN12_GLOBAL__N_120GetBasicPredicateLibEvE6theLib)
  ret void
}